; Function Attrs: mustprogress uwtable
define dso_local { ptr, i32 } @_ZNK4Luau12AstNameTable11getWithTypeEPKcm(ptr noundef nonnull align 8 dereferenceable(56) %0, ptr noundef %1, i64 noundef %2) local_unnamed_addr #5 align 2 {
  %4 = alloca %"struct.Luau::AstNameTable::Entry", align 8
  call void @llvm.lifetime.start.p0(i64 16, ptr nonnull %4) #24
  store ptr %1, ptr %4, align 8, !tbaa !42
  %5 = getelementptr inbounds nuw i8, ptr %4, i64 8
  %6 = trunc i64 %2 to i32
  store i32 %6, ptr %5, align 8, !tbaa !26
  %7 = getelementptr inbounds nuw i8, ptr %4, i64 12
  store i32 0, ptr %7, align 4, !tbaa !43
  %8 = call noundef ptr @_ZNK4Luau6detail14DenseHashTableINS_12AstNameTable5EntryES3_S3_NS0_16ItemInterfaceSetIS3_EENS2_9EntryHashESt8equal_toIS3_EE4findERKS3_(ptr noundef nonnull align 8 dereferenceable(48) %0, ptr noundef nonnull align 8 dereferenceable(16) %4)
  call void @llvm.lifetime.end.p0(i64 16, ptr nonnull %4) #24
  %.not.not = icmp eq ptr %8, null
  br i1 %.not.not, label %14, label %9

9:                                                ; preds = %3
  %10 = getelementptr inbounds nuw i8, ptr %8, i64 12
  %11 = load i64, ptr %8, align 8, !tbaa !25
  %12 = inttoptr i64 %11 to ptr
  %13 = load i32, ptr %10, align 4, !tbaa !32
  br label %14

14:                                               ; preds = %3, %9
  %.sroa.010.1 = phi ptr [ %12, %9 ], [ null, %3 ]
  %.sroa.3.1 = phi i32 [ %13, %9 ], [ 281, %3 ]
  %.fca.0.insert = insertvalue { ptr, i32 } poison, ptr %.sroa.010.1, 0
  %.fca.1.insert = insertvalue { ptr, i32 } %.fca.0.insert, i32 %.sroa.3.1, 1
  ret { ptr, i32 } %.fca.1.insert
}